target datalayout = "e-m:e-p270:32:32-p271:32:32-p272:64:64-i64:64-i128:128-f80:128-n8:16:32:64-S128"
target triple = "x86_64-pc-linux-gnu"

%struct.Gia_Obj_t_ = type <{ i64, i32 }>
%struct.Gia_Man_t_ = type { ptr, ptr, i32, i32, i32, i32, ptr, ptr, i32, i32, i32, ptr, ptr, %struct.Vec_Int_t_, %struct.Vec_Int_t_, i32, i32, i32, %struct.Vec_Int_t_, ptr, ptr, ptr, i32, i32, i32, i32, ptr, ptr, ptr, ptr, ptr, i32, i32, ptr, i32, ptr, ptr, ptr, ptr, ptr, ptr, ptr, ptr, ptr, ptr, ptr, ptr, ptr, ptr, ptr, ptr, ptr, ptr, %struct.Vec_Int_t_, %struct.Vec_Int_t_, ptr, ptr, ptr, ptr, ptr, ptr, ptr, ptr, ptr, ptr, ptr, ptr, ptr, ptr, ptr, ptr, ptr, ptr, ptr, ptr, ptr, i32, float, float, ptr, ptr, i32, ptr, ptr, ptr, ptr, ptr, ptr, ptr, ptr, ptr, ptr, ptr, ptr, ptr, ptr, ptr, i64, i64, ptr, ptr, i32, i32, i32, i32, i32, i32, i32, i32, i32, i32, i32, i32, ptr, ptr, ptr, ptr, ptr, ptr, ptr, ptr, i32, i32, i32, ptr, i32, i32, ptr, ptr, ptr, ptr, ptr, ptr, i32, i32, ptr, %struct.Vec_Int_t_, %struct.Vec_Int_t_, %struct.Vec_Int_t_, ptr, ptr, ptr, i32, i32, i32, i32, ptr, ptr, ptr, ptr, ptr }
%struct.Vec_Int_t_ = type { i32, i32, ptr }

; Function Attrs: inlinehint nounwind uwtable
define internal i32 @Gia_ObjFaninId0(ptr noundef %0, i32 noundef %1) #1 {
  %3 = alloca ptr, align 8
  %4 = alloca i32, align 4
  store ptr %0, ptr %3, align 8, !tbaa !8
  store i32 %1, ptr %4, align 4, !tbaa !13
  %5 = load i32, ptr %4, align 4, !tbaa !13
  %6 = load ptr, ptr %3, align 8, !tbaa !8
  %7 = load i64, ptr %6, align 4
  %8 = and i64 %7, 536870911
  %9 = trunc i64 %8 to i32
  %10 = sub nsw i32 %5, %9
  ret i32 %10
}

; Function Attrs: inlinehint nounwind uwtable
define internal i32 @Abc_MaxInt(i32 noundef %0, i32 noundef %1) #1 {
  %3 = alloca i32, align 4
  %4 = alloca i32, align 4
  store i32 %0, ptr %3, align 4, !tbaa !13
  store i32 %1, ptr %4, align 4, !tbaa !13
  %5 = load i32, ptr %3, align 4, !tbaa !13
  %6 = load i32, ptr %4, align 4, !tbaa !13
  %7 = icmp sgt i32 %5, %6
  br i1 %7, label %8, label %10

8:                                                ; preds = %2
  %9 = load i32, ptr %3, align 4, !tbaa !13
  br label %12

10:                                               ; preds = %2
  %11 = load i32, ptr %4, align 4, !tbaa !13
  br label %12

12:                                               ; preds = %10, %8
  %13 = phi i32 [ %9, %8 ], [ %11, %10 ]
  ret i32 %13
}

; Function Attrs: inlinehint nounwind uwtable
define internal ptr @Gia_ManCi(ptr noundef %0, i32 noundef %1) #1 {
  %3 = alloca ptr, align 8
  %4 = alloca i32, align 4
  store ptr %0, ptr %3, align 8, !tbaa !3
  store i32 %1, ptr %4, align 4, !tbaa !13
  %5 = load ptr, ptr %3, align 8, !tbaa !3
  %6 = load ptr, ptr %3, align 8, !tbaa !3
  %7 = getelementptr inbounds nuw %struct.Gia_Man_t_, ptr %6, i32 0, i32 11
  %8 = load ptr, ptr %7, align 8, !tbaa !49
  %9 = load i32, ptr %4, align 4, !tbaa !13
  %10 = call i32 @Vec_IntEntry(ptr noundef %8, i32 noundef %9)
  %11 = call ptr @Gia_ManObj(ptr noundef %5, i32 noundef %10)
  ret ptr %11
}

; Function Attrs: inlinehint nounwind uwtable
define internal i32 @Gia_ManPiNum(ptr noundef %0) #1 {
  %2 = alloca ptr, align 8
  store ptr %0, ptr %2, align 8, !tbaa !3
  %3 = load ptr, ptr %2, align 8, !tbaa !3
  %4 = getelementptr inbounds nuw %struct.Gia_Man_t_, ptr %3, i32 0, i32 11
  %5 = load ptr, ptr %4, align 8, !tbaa !49
  %6 = call i32 @Vec_IntSize(ptr noundef %5)
  %7 = load ptr, ptr %2, align 8, !tbaa !3
  %8 = getelementptr inbounds nuw %struct.Gia_Man_t_, ptr %7, i32 0, i32 2
  %9 = load i32, ptr %8, align 8, !tbaa !48
  %10 = sub nsw i32 %6, %9
  ret i32 %10
}

; Function Attrs: inlinehint nounwind uwtable
define internal i32 @Gia_ManPoNum(ptr noundef %0) #1 {
  %2 = alloca ptr, align 8
  store ptr %0, ptr %2, align 8, !tbaa !3
  %3 = load ptr, ptr %2, align 8, !tbaa !3
  %4 = getelementptr inbounds nuw %struct.Gia_Man_t_, ptr %3, i32 0, i32 12
  %5 = load ptr, ptr %4, align 8, !tbaa !51
  %6 = call i32 @Vec_IntSize(ptr noundef %5)
  %7 = load ptr, ptr %2, align 8, !tbaa !3
  %8 = getelementptr inbounds nuw %struct.Gia_Man_t_, ptr %7, i32 0, i32 2
  %9 = load i32, ptr %8, align 8, !tbaa !48
  %10 = sub nsw i32 %6, %9
  ret i32 %10
}

; Function Attrs: inlinehint nounwind uwtable
define internal i32 @Gia_ManRegNum(ptr noundef %0) #1 {
  %2 = alloca ptr, align 8
  store ptr %0, ptr %2, align 8, !tbaa !3
  %3 = load ptr, ptr %2, align 8, !tbaa !3
  %4 = getelementptr inbounds nuw %struct.Gia_Man_t_, ptr %3, i32 0, i32 2
  %5 = load i32, ptr %4, align 8, !tbaa !48
  ret i32 %5
}

; Function Attrs: inlinehint nounwind uwtable
define internal void @Vec_IntWriteEntry(ptr noundef %0, i32 noundef %1, i32 noundef %2) #1 {
  %4 = alloca ptr, align 8
  %5 = alloca i32, align 4
  %6 = alloca i32, align 4
  store ptr %0, ptr %4, align 8, !tbaa !33
  store i32 %1, ptr %5, align 4, !tbaa !13
  store i32 %2, ptr %6, align 4, !tbaa !13
  %7 = load i32, ptr %6, align 4, !tbaa !13
  %8 = load ptr, ptr %4, align 8, !tbaa !33
  %9 = getelementptr inbounds nuw %struct.Vec_Int_t_, ptr %8, i32 0, i32 2
  %10 = load ptr, ptr %9, align 8, !tbaa !38
  %11 = load i32, ptr %5, align 4, !tbaa !13
  %12 = sext i32 %11 to i64
  %13 = getelementptr inbounds i32, ptr %10, i64 %12
  store i32 %7, ptr %13, align 4, !tbaa !13
  ret void
}

; Function Attrs: inlinehint nounwind uwtable
define internal i32 @Vec_IntEntry(ptr noundef %0, i32 noundef %1) #1 {
  %3 = alloca ptr, align 8
  %4 = alloca i32, align 4
  store ptr %0, ptr %3, align 8, !tbaa !33
  store i32 %1, ptr %4, align 4, !tbaa !13
  %5 = load ptr, ptr %3, align 8, !tbaa !33
  %6 = getelementptr inbounds nuw %struct.Vec_Int_t_, ptr %5, i32 0, i32 2
  %7 = load ptr, ptr %6, align 8, !tbaa !38
  %8 = load i32, ptr %4, align 4, !tbaa !13
  %9 = sext i32 %8 to i64
  %10 = getelementptr inbounds i32, ptr %7, i64 %9
  %11 = load i32, ptr %10, align 4, !tbaa !13
  ret i32 %11
}

; Function Attrs: inlinehint nounwind uwtable
define internal i32 @Gia_ObjFaninId0p(ptr noundef %0, ptr noundef %1) #1 {
  %3 = alloca ptr, align 8
  %4 = alloca ptr, align 8
  store ptr %0, ptr %3, align 8, !tbaa !3
  store ptr %1, ptr %4, align 8, !tbaa !8
  %5 = load ptr, ptr %4, align 8, !tbaa !8
  %6 = load ptr, ptr %3, align 8, !tbaa !3
  %7 = load ptr, ptr %4, align 8, !tbaa !8
  %8 = call i32 @Gia_ObjId(ptr noundef %6, ptr noundef %7)
  %9 = call i32 @Gia_ObjFaninId0(ptr noundef %5, i32 noundef %8)
  ret i32 %9
}

; Function Attrs: inlinehint nounwind uwtable
define internal i32 @Gia_ObjId(ptr noundef %0, ptr noundef %1) #1 {
  %3 = alloca ptr, align 8
  %4 = alloca ptr, align 8
  store ptr %0, ptr %3, align 8, !tbaa !3
  store ptr %1, ptr %4, align 8, !tbaa !8
  %5 = load ptr, ptr %4, align 8, !tbaa !8
  %6 = load ptr, ptr %3, align 8, !tbaa !3
  %7 = getelementptr inbounds nuw %struct.Gia_Man_t_, ptr %6, i32 0, i32 6
  %8 = load ptr, ptr %7, align 8, !tbaa !36
  %9 = ptrtoint ptr %5 to i64
  %10 = ptrtoint ptr %8 to i64
  %11 = sub i64 %9, %10
  %12 = sdiv exact i64 %11, 12
  %13 = trunc i64 %12 to i32
  ret i32 %13
}

; Function Attrs: inlinehint nounwind uwtable
define internal ptr @Gia_ManCo(ptr noundef %0, i32 noundef %1) #1 {
  %3 = alloca ptr, align 8
  %4 = alloca i32, align 4
  store ptr %0, ptr %3, align 8, !tbaa !3
  store i32 %1, ptr %4, align 4, !tbaa !13
  %5 = load ptr, ptr %3, align 8, !tbaa !3
  %6 = load ptr, ptr %3, align 8, !tbaa !3
  %7 = getelementptr inbounds nuw %struct.Gia_Man_t_, ptr %6, i32 0, i32 12
  %8 = load ptr, ptr %7, align 8, !tbaa !51
  %9 = load i32, ptr %4, align 4, !tbaa !13
  %10 = call i32 @Vec_IntEntry(ptr noundef %8, i32 noundef %9)
  %11 = call ptr @Gia_ManObj(ptr noundef %5, i32 noundef %10)
  ret ptr %11
}

; Function Attrs: inlinehint nounwind uwtable
define internal i32 @Vec_IntSize(ptr noundef %0) #1 {
  %2 = alloca ptr, align 8
  store ptr %0, ptr %2, align 8, !tbaa !33
  %3 = load ptr, ptr %2, align 8, !tbaa !33
  %4 = getelementptr inbounds nuw %struct.Vec_Int_t_, ptr %3, i32 0, i32 1
  %5 = load i32, ptr %4, align 4, !tbaa !45
  ret i32 %5
}

; Function Attrs: inlinehint nounwind uwtable
define internal i32 @Gia_ObjIsAnd(ptr noundef %0) #1 {
  %2 = alloca ptr, align 8
  store ptr %0, ptr %2, align 8, !tbaa !8
  %3 = load ptr, ptr %2, align 8, !tbaa !8
  %4 = load i64, ptr %3, align 4
  %5 = lshr i64 %4, 31
  %6 = and i64 %5, 1
  %7 = trunc i64 %6 to i32
  %8 = icmp ne i32 %7, 0
  br i1 %8, label %15, label %9

9:                                                ; preds = %1
  %10 = load ptr, ptr %2, align 8, !tbaa !8
  %11 = load i64, ptr %10, align 4
  %12 = and i64 %11, 536870911
  %13 = trunc i64 %12 to i32
  %14 = icmp ne i32 %13, 536870911
  br label %15

15:                                               ; preds = %9, %1
  %16 = phi i1 [ false, %1 ], [ %14, %9 ]
  %17 = zext i1 %16 to i32
  ret i32 %17
}

; Function Attrs: inlinehint nounwind uwtable
define internal ptr @Gia_ManObj(ptr noundef %0, i32 noundef %1) #1 {
  %3 = alloca ptr, align 8
  %4 = alloca i32, align 4
  store ptr %0, ptr %3, align 8, !tbaa !3
  store i32 %1, ptr %4, align 4, !tbaa !13
  %5 = load ptr, ptr %3, align 8, !tbaa !3
  %6 = getelementptr inbounds nuw %struct.Gia_Man_t_, ptr %5, i32 0, i32 6
  %7 = load ptr, ptr %6, align 8, !tbaa !36
  %8 = load i32, ptr %4, align 4, !tbaa !13
  %9 = sext i32 %8 to i64
  %10 = getelementptr inbounds %struct.Gia_Obj_t_, ptr %7, i64 %9
  ret ptr %10
}

; Function Attrs: nounwind uwtable
define i32 @Gia_ManSifCheckIter(ptr noundef %0, ptr noundef %1, ptr noundef %2, i32 noundef %3, i32 noundef %4) #0 {
  %6 = alloca ptr, align 8
  %7 = alloca ptr, align 8
  %8 = alloca ptr, align 8
  %9 = alloca i32, align 4
  %10 = alloca i32, align 4
  %11 = alloca i32, align 4
  %12 = alloca i32, align 4
  %13 = alloca i32, align 4
  %14 = alloca ptr, align 8
  %15 = alloca ptr, align 8
  %16 = alloca ptr, align 8
  %17 = alloca i32, align 4
  store ptr %0, ptr %6, align 8, !tbaa !3
  store ptr %1, ptr %7, align 8, !tbaa !33
  store ptr %2, ptr %8, align 8, !tbaa !33
  store i32 %3, ptr %9, align 4, !tbaa !13
  store i32 %4, ptr %10, align 4, !tbaa !13
  call void @llvm.lifetime.start.p0(i64 4, ptr %11) #11
  call void @llvm.lifetime.start.p0(i64 4, ptr %12) #11
  store i32 0, ptr %12, align 4, !tbaa !13
  call void @llvm.lifetime.start.p0(i64 4, ptr %13) #11
  %18 = load i32, ptr %9, align 4, !tbaa !13
  %19 = add nsw i32 %18, 1
  store i32 %19, ptr %13, align 4, !tbaa !13
  call void @llvm.lifetime.start.p0(i64 8, ptr %14) #11
  call void @llvm.lifetime.start.p0(i64 8, ptr %15) #11
  call void @llvm.lifetime.start.p0(i64 8, ptr %16) #11
  store i32 0, ptr %11, align 4, !tbaa !13
  br label %20

20:                                               ; preds = %48, %5
  %21 = load i32, ptr %11, align 4, !tbaa !13
  %22 = load ptr, ptr %6, align 8, !tbaa !3
  %23 = getelementptr inbounds nuw %struct.Gia_Man_t_, ptr %22, i32 0, i32 4
  %24 = load i32, ptr %23, align 8, !tbaa !47
  %25 = icmp slt i32 %21, %24
  br i1 %25, label %26, label %31

26:                                               ; preds = %20
  %27 = load ptr, ptr %6, align 8, !tbaa !3
  %28 = load i32, ptr %11, align 4, !tbaa !13
  %29 = call ptr @Gia_ManObj(ptr noundef %27, i32 noundef %28)
  store ptr %29, ptr %14, align 8, !tbaa !8
  %30 = icmp ne ptr %29, null
  br label %31

31:                                               ; preds = %26, %20
  %32 = phi i1 [ false, %20 ], [ %30, %26 ]
  br i1 %32, label %33, label %51

33:                                               ; preds = %31
  %34 = load ptr, ptr %14, align 8, !tbaa !8
  %35 = call i32 @Gia_ObjIsAnd(ptr noundef %34)
  %36 = icmp ne i32 %35, 0
  br i1 %36, label %38, label %37

37:                                               ; preds = %33
  br label %47

38:                                               ; preds = %33
  %39 = load ptr, ptr %6, align 8, !tbaa !3
  %40 = load i32, ptr %11, align 4, !tbaa !13
  %41 = load ptr, ptr %7, align 8, !tbaa !33
  %42 = load ptr, ptr %8, align 8, !tbaa !33
  %43 = load i32, ptr %13, align 4, !tbaa !13
  %44 = call i32 @Gia_ManSifCutOne(ptr noundef %39, i32 noundef %40, ptr noundef %41, ptr noundef %42, i32 noundef %43)
  %45 = load i32, ptr %12, align 4, !tbaa !13
  %46 = or i32 %45, %44
  store i32 %46, ptr %12, align 4, !tbaa !13
  br label %47

47:                                               ; preds = %38, %37
  br label %48

48:                                               ; preds = %47
  %49 = load i32, ptr %11, align 4, !tbaa !13
  %50 = add nsw i32 %49, 1
  store i32 %50, ptr %11, align 4, !tbaa !13
  br label %20, !llvm.loop !103

51:                                               ; preds = %31
  store i32 0, ptr %11, align 4, !tbaa !13
  br label %52

52:                                               ; preds = %76, %51
  %53 = load i32, ptr %11, align 4, !tbaa !13
  %54 = load ptr, ptr %6, align 8, !tbaa !3
  %55 = getelementptr inbounds nuw %struct.Gia_Man_t_, ptr %54, i32 0, i32 12
  %56 = load ptr, ptr %55, align 8, !tbaa !51
  %57 = call i32 @Vec_IntSize(ptr noundef %56)
  %58 = icmp slt i32 %53, %57
  br i1 %58, label %59, label %64

59:                                               ; preds = %52
  %60 = load ptr, ptr %6, align 8, !tbaa !3
  %61 = load i32, ptr %11, align 4, !tbaa !13
  %62 = call ptr @Gia_ManCo(ptr noundef %60, i32 noundef %61)
  store ptr %62, ptr %14, align 8, !tbaa !8
  %63 = icmp ne ptr %62, null
  br label %64

64:                                               ; preds = %59, %52
  %65 = phi i1 [ false, %52 ], [ %63, %59 ]
  br i1 %65, label %66, label %79

66:                                               ; preds = %64
  %67 = load ptr, ptr %8, align 8, !tbaa !33
  %68 = load ptr, ptr %6, align 8, !tbaa !3
  %69 = load ptr, ptr %14, align 8, !tbaa !8
  %70 = call i32 @Gia_ObjId(ptr noundef %68, ptr noundef %69)
  %71 = load ptr, ptr %8, align 8, !tbaa !33
  %72 = load ptr, ptr %6, align 8, !tbaa !3
  %73 = load ptr, ptr %14, align 8, !tbaa !8
  %74 = call i32 @Gia_ObjFaninId0p(ptr noundef %72, ptr noundef %73)
  %75 = call i32 @Vec_IntEntry(ptr noundef %71, i32 noundef %74)
  call void @Vec_IntWriteEntry(ptr noundef %67, i32 noundef %70, i32 noundef %75)
  br label %76

76:                                               ; preds = %66
  %77 = load i32, ptr %11, align 4, !tbaa !13
  %78 = add nsw i32 %77, 1
  store i32 %78, ptr %11, align 4, !tbaa !13
  br label %52, !llvm.loop !104

79:                                               ; preds = %64
  store i32 0, ptr %11, align 4, !tbaa !13
  br label %80

80:                                               ; preds = %123, %79
  %81 = load i32, ptr %11, align 4, !tbaa !13
  %82 = load ptr, ptr %6, align 8, !tbaa !3
  %83 = call i32 @Gia_ManRegNum(ptr noundef %82)
  %84 = icmp slt i32 %81, %83
  br i1 %84, label %85, label %101

85:                                               ; preds = %80
  %86 = load ptr, ptr %6, align 8, !tbaa !3
  %87 = load ptr, ptr %6, align 8, !tbaa !3
  %88 = call i32 @Gia_ManPoNum(ptr noundef %87)
  %89 = load i32, ptr %11, align 4, !tbaa !13
  %90 = add nsw i32 %88, %89
  %91 = call ptr @Gia_ManCo(ptr noundef %86, i32 noundef %90)
  store ptr %91, ptr %15, align 8, !tbaa !8
  %92 = icmp ne ptr %91, null
  br i1 %92, label %93, label %101

93:                                               ; preds = %85
  %94 = load ptr, ptr %6, align 8, !tbaa !3
  %95 = load ptr, ptr %6, align 8, !tbaa !3
  %96 = call i32 @Gia_ManPiNum(ptr noundef %95)
  %97 = load i32, ptr %11, align 4, !tbaa !13
  %98 = add nsw i32 %96, %97
  %99 = call ptr @Gia_ManCi(ptr noundef %94, i32 noundef %98)
  store ptr %99, ptr %16, align 8, !tbaa !8
  %100 = icmp ne ptr %99, null
  br label %101

101:                                              ; preds = %93, %85, %80
  %102 = phi i1 [ false, %85 ], [ false, %80 ], [ %100, %93 ]
  br i1 %102, label %103, label %126

103:                                              ; preds = %101
  call void @llvm.lifetime.start.p0(i64 4, ptr %17) #11
  %104 = load ptr, ptr %8, align 8, !tbaa !33
  %105 = load ptr, ptr %6, align 8, !tbaa !3
  %106 = load ptr, ptr %15, align 8, !tbaa !8
  %107 = call i32 @Gia_ObjId(ptr noundef %105, ptr noundef %106)
  %108 = call i32 @Vec_IntEntry(ptr noundef %104, i32 noundef %107)
  %109 = load i32, ptr %10, align 4, !tbaa !13
  %110 = sub nsw i32 %108, %109
  store i32 %110, ptr %17, align 4, !tbaa !13
  %111 = load i32, ptr %17, align 4, !tbaa !13
  %112 = load ptr, ptr %8, align 8, !tbaa !33
  %113 = load ptr, ptr %6, align 8, !tbaa !3
  %114 = load ptr, ptr %16, align 8, !tbaa !8
  %115 = call i32 @Gia_ObjId(ptr noundef %113, ptr noundef %114)
  %116 = call i32 @Vec_IntEntry(ptr noundef %112, i32 noundef %115)
  %117 = call i32 @Abc_MaxInt(i32 noundef %111, i32 noundef %116)
  store i32 %117, ptr %17, align 4, !tbaa !13
  %118 = load ptr, ptr %8, align 8, !tbaa !33
  %119 = load ptr, ptr %6, align 8, !tbaa !3
  %120 = load ptr, ptr %16, align 8, !tbaa !8
  %121 = call i32 @Gia_ObjId(ptr noundef %119, ptr noundef %120)
  %122 = load i32, ptr %17, align 4, !tbaa !13
  call void @Vec_IntWriteEntry(ptr noundef %118, i32 noundef %121, i32 noundef %122)
  call void @llvm.lifetime.end.p0(i64 4, ptr %17) #11
  br label %123

123:                                              ; preds = %103
  %124 = load i32, ptr %11, align 4, !tbaa !13
  %125 = add nsw i32 %124, 1
  store i32 %125, ptr %11, align 4, !tbaa !13
  br label %80, !llvm.loop !105

126:                                              ; preds = %101
  %127 = load i32, ptr %12, align 4, !tbaa !13
  call void @llvm.lifetime.end.p0(i64 8, ptr %16) #11
  call void @llvm.lifetime.end.p0(i64 8, ptr %15) #11
  call void @llvm.lifetime.end.p0(i64 8, ptr %14) #11
  call void @llvm.lifetime.end.p0(i64 4, ptr %13) #11
  call void @llvm.lifetime.end.p0(i64 4, ptr %12) #11
  call void @llvm.lifetime.end.p0(i64 4, ptr %11) #11
  ret i32 %127
}