; Function Attrs: nofree norecurse nosync nounwind memory(readwrite, inaccessiblemem: none) uwtable
define range(i32 0, 2) i32 @Gia_ManSifCheckIter(ptr noundef readonly captures(none) %0, ptr noundef readonly captures(none) %1, ptr noundef readonly captures(none) %2, i32 noundef %3, i32 noundef %4) local_unnamed_addr #6 {
  %6 = add nsw i32 %3, 1
  %7 = getelementptr i8, ptr %0, i64 32
  %8 = getelementptr inbounds nuw i8, ptr %0, i64 24
  %9 = load i32, ptr %8, align 8, !tbaa !44
  %10 = icmp sgt i32 %9, 0
  br i1 %10, label %.lr.ph, label %.critedge

.lr.ph:                                           ; preds = %5
  %11 = getelementptr i8, ptr %1, i64 8
  %12 = getelementptr i8, ptr %2, i64 8
  br label %13

13:                                               ; preds = %.lr.ph, %24
  %14 = phi i32 [ %9, %.lr.ph ], [ %25, %24 ]
  %indvars.iv = phi i64 [ 0, %.lr.ph ], [ %indvars.iv.next, %24 ]
  %.04986 = phi i32 [ 0, %.lr.ph ], [ %.150, %24 ]
  %.val63 = load ptr, ptr %7, align 8, !tbaa !28
  %.not = icmp eq ptr %.val63, null
  br i1 %.not, label %.critedge, label %15

15:                                               ; preds = %13
  %16 = getelementptr inbounds nuw %struct.Gia_Obj_t_, ptr %.val63, i64 %indvars.iv
  %.val81 = load i64, ptr %16, align 4
  %17 = and i64 %.val81, 2147483648
  %.not.i = icmp ne i64 %17, 0
  %18 = and i64 %.val81, 536870911
  %19 = icmp eq i64 %18, 536870911
  %narrow.i.not = or i1 %.not.i, %19
  br i1 %narrow.i.not, label %24, label %20

20:                                               ; preds = %15
  %.val82 = load ptr, ptr %11, align 8, !tbaa !39
  %.val83 = load ptr, ptr %12, align 8, !tbaa !39
  %21 = trunc nuw nsw i64 %indvars.iv to i32
  %22 = tail call fastcc i32 @Gia_ManSifCutOne(ptr noundef nonnull %0, i32 noundef %21, ptr %.val82, ptr %.val83, i32 noundef %6)
  %23 = or i32 %22, %.04986
  %.pre = load i32, ptr %8, align 8, !tbaa !44
  br label %24

24:                                               ; preds = %20, %15
  %25 = phi i32 [ %.pre, %20 ], [ %14, %15 ]
  %.150 = phi i32 [ %23, %20 ], [ %.04986, %15 ]
  %indvars.iv.next = add nuw nsw i64 %indvars.iv, 1
  %26 = sext i32 %25 to i64
  %27 = icmp slt i64 %indvars.iv.next, %26
  br i1 %27, label %13, label %.critedge, !llvm.loop !99

.critedge:                                        ; preds = %13, %24, %5
  %.049.lcssa = phi i32 [ 0, %5 ], [ %.150, %24 ], [ %.04986, %13 ]
  %28 = getelementptr inbounds nuw i8, ptr %0, i64 72
  %29 = load ptr, ptr %28, align 8, !tbaa !52
  %30 = getelementptr i8, ptr %29, i64 4
  %.val6291 = load i32, ptr %30, align 4, !tbaa !42
  %31 = icmp sgt i32 %.val6291, 0
  br i1 %31, label %.lr.ph93, label %.critedge2

.lr.ph93:                                         ; preds = %.critedge
  %.val78 = load ptr, ptr %7, align 8, !tbaa !28
  %.not55 = icmp eq ptr %.val78, null
  br i1 %.not55, label %.critedge2, label %.lr.ph93.split

.lr.ph93.split:                                   ; preds = %.lr.ph93
  %32 = getelementptr i8, ptr %2, i64 8
  %33 = getelementptr i8, ptr %29, i64 8
  %.val79.val = load ptr, ptr %33, align 8, !tbaa !39
  %.val66 = load ptr, ptr %32, align 8, !tbaa !39
  br label %34

34:                                               ; preds = %.lr.ph93.split, %34
  %indvars.iv106 = phi i64 [ 0, %.lr.ph93.split ], [ %indvars.iv.next107, %34 ]
  %35 = getelementptr inbounds nuw i32, ptr %.val79.val, i64 %indvars.iv106
  %36 = load i32, ptr %35, align 4, !tbaa !29
  %37 = sext i32 %36 to i64
  %38 = getelementptr inbounds %struct.Gia_Obj_t_, ptr %.val78, i64 %37
  %.val3.i = load i64, ptr %38, align 4
  %39 = trunc i64 %.val3.i to i32
  %40 = and i32 %39, 536870911
  %41 = sub nsw i32 %36, %40
  %42 = sext i32 %41 to i64
  %43 = getelementptr inbounds i32, ptr %.val66, i64 %42
  %44 = load i32, ptr %43, align 4, !tbaa !29
  %45 = getelementptr inbounds i32, ptr %.val66, i64 %37
  store i32 %44, ptr %45, align 4, !tbaa !29
  %indvars.iv.next107 = add nuw nsw i64 %indvars.iv106, 1
  %.val62 = load i32, ptr %30, align 4, !tbaa !42
  %46 = sext i32 %.val62 to i64
  %47 = icmp slt i64 %indvars.iv.next107, %46
  br i1 %47, label %34, label %.critedge2, !llvm.loop !100

.critedge2:                                       ; preds = %34, %.lr.ph93, %.critedge
  %48 = getelementptr i8, ptr %0, i64 16
  %.val6999 = load i32, ptr %48, align 8, !tbaa !45
  %49 = icmp sgt i32 %.val6999, 0
  br i1 %49, label %.lr.ph103, label %.critedge4

.lr.ph103:                                        ; preds = %.critedge2
  %.val76 = load ptr, ptr %7, align 8, !tbaa !28
  %50 = getelementptr i8, ptr %29, i64 8
  %.val77.val = load ptr, ptr %50, align 8, !tbaa !39
  %.not56 = icmp eq ptr %.val76, null
  br i1 %.not56, label %.critedge4, label %.lr.ph103.split

.lr.ph103.split:                                  ; preds = %.lr.ph103
  %51 = getelementptr i8, ptr %2, i64 8
  %52 = getelementptr i8, ptr %0, i64 64
  %.val71 = load ptr, ptr %52, align 8, !tbaa !46
  %53 = getelementptr i8, ptr %.val71, i64 8
  %.val73.val = load ptr, ptr %53, align 8, !tbaa !39
  %54 = getelementptr i8, ptr %.val71, i64 4
  %.val65 = load ptr, ptr %51, align 8, !tbaa !39
  br label %55

55:                                               ; preds = %.lr.ph103.split, %55
  %.val6999.pn = phi i32 [ %.val6999, %.lr.ph103.split ], [ %.val69, %55 ]
  %.2101 = phi i32 [ 0, %.lr.ph103.split ], [ %73, %55 ]
  %.val75.val = load i32, ptr %30, align 4, !tbaa !42
  %56 = sub i32 %.2101, %.val6999.pn
  %57 = add i32 %56, %.val75.val
  %58 = sext i32 %57 to i64
  %59 = getelementptr inbounds i32, ptr %.val77.val, i64 %58
  %60 = load i32, ptr %59, align 4, !tbaa !29
  %.val71.val = load i32, ptr %54, align 4, !tbaa !42
  %61 = add i32 %56, %.val71.val
  %62 = sext i32 %61 to i64
  %63 = getelementptr inbounds i32, ptr %.val73.val, i64 %62
  %64 = load i32, ptr %63, align 4, !tbaa !29
  %65 = sext i32 %60 to i64
  %66 = getelementptr inbounds i32, ptr %.val65, i64 %65
  %67 = load i32, ptr %66, align 4, !tbaa !29
  %68 = sub nsw i32 %67, %4
  %69 = sext i32 %64 to i64
  %70 = getelementptr inbounds i32, ptr %.val65, i64 %69
  %71 = load i32, ptr %70, align 4, !tbaa !29
  %72 = tail call noundef i32 @llvm.smax.i32(i32 %68, i32 %71)
  store i32 %72, ptr %70, align 4, !tbaa !29
  %73 = add nuw nsw i32 %.2101, 1
  %.val69 = load i32, ptr %48, align 8, !tbaa !45
  %74 = icmp slt i32 %73, %.val69
  br i1 %74, label %55, label %.critedge4, !llvm.loop !101

.critedge4:                                       ; preds = %55, %.lr.ph103, %.critedge2
  ret i32 %.049.lcssa
}